; Function Attrs: nofree norecurse nosync nounwind memory(argmem: readwrite) uwtable
define dso_local noundef zeroext i1 @fsm_truncate_avail(ptr noundef captures(none) %0, i32 noundef %1) local_unnamed_addr #0 {
  %3 = getelementptr inbounds nuw i8, ptr %0, i64 24
  %4 = add i32 %1, 4095
  %5 = icmp slt i32 %4, 8164
  br i1 %5, label %.lr.ph.preheader, label %fsm_rebuild_page.exit

.lr.ph.preheader:                                 ; preds = %2
  %6 = sext i32 %4 to i64
  %.add = add nsw i64 %6, 4
  br label %.lr.ph

.lr.ph:                                           ; preds = %.lr.ph.preheader, %.lr.ph
  %.014 = phi i1 [ %spec.select, %.lr.ph ], [ false, %.lr.ph.preheader ]
  %.010.idx13 = phi i64 [ %.010.add, %.lr.ph ], [ %.add, %.lr.ph.preheader ]
  %.010.ptr = getelementptr inbounds i8, ptr %3, i64 %.010.idx13
  %7 = load i8, ptr %.010.ptr, align 1
  %.not = icmp ne i8 %7, 0
  %spec.select = select i1 %.not, i1 true, i1 %.014
  store i8 0, ptr %.010.ptr, align 1
  %.010.add = add nsw i64 %.010.idx13, 1
  %exitcond.not = icmp eq i64 %.010.add, 8168
  br i1 %exitcond.not, label %._crit_edge, label %.lr.ph, !llvm.loop !9

._crit_edge:                                      ; preds = %.lr.ph
  br i1 %spec.select, label %8, label %fsm_rebuild_page.exit

8:                                                ; preds = %._crit_edge
  %9 = getelementptr inbounds nuw i8, ptr %0, i64 28
  br label %10

10:                                               ; preds = %24, %8
  %indvars.iv.i = phi i64 [ 4094, %8 ], [ %indvars.iv.next.i, %24 ]
  %11 = shl nuw i64 %indvars.iv.i, 1
  %12 = add nuw nsw i64 %11, 2
  %13 = icmp samesign ult i64 %indvars.iv.i, 4082
  br i1 %13, label %14, label %.thread.i

14:                                               ; preds = %10
  %15 = or disjoint i64 %11, 1
  %16 = getelementptr inbounds nuw [0 x i8], ptr %9, i64 0, i64 %15
  %17 = load i8, ptr %16, align 1
  %.not32.i = icmp eq i64 %indvars.iv.i, 4081
  br i1 %.not32.i, label %.thread.i, label %18

18:                                               ; preds = %14
  %19 = getelementptr inbounds nuw [0 x i8], ptr %9, i64 0, i64 %12
  %20 = load i8, ptr %19, align 1
  %.0..i = tail call i8 @llvm.umax.i8(i8 %17, i8 %20)
  br label %.thread.i

.thread.i:                                        ; preds = %18, %14, %10
  %.1.i = phi i8 [ %.0..i, %18 ], [ %17, %14 ], [ 0, %10 ]
  %21 = getelementptr inbounds nuw [0 x i8], ptr %9, i64 0, i64 %indvars.iv.i
  %22 = load i8, ptr %21, align 1
  %.not.i = icmp eq i8 %22, %.1.i
  br i1 %.not.i, label %24, label %23

23:                                               ; preds = %.thread.i
  store i8 %.1.i, ptr %21, align 1
  br label %24

24:                                               ; preds = %23, %.thread.i
  %indvars.iv.next.i = add nsw i64 %indvars.iv.i, -1
  %.not30.i = icmp eq i64 %indvars.iv.i, 0
  br i1 %.not30.i, label %fsm_rebuild_page.exit, label %10, !llvm.loop !6

fsm_rebuild_page.exit:                            ; preds = %24, %2, %._crit_edge
  %.0.lcssa16 = phi i1 [ false, %._crit_edge ], [ false, %2 ], [ true, %24 ]
  ret i1 %.0.lcssa16
}